target datalayout = "e-m:e-p270:32:32-p271:32:32-p272:64:64-i64:64-i128:128-f80:128-n8:16:32:64-S128"
target triple = "x86_64-pc-linux-gnu"

@hf_nas_eps_emm_pnb_ciot = internal global i32 0, align 4
@hf_nas_eps_emm_saf = internal global i32 0, align 4
@hf_nas_eps_emm_add_upd_type = internal global i32 0, align 4

; Function Attrs: null_pointer_is_valid sspstrong uwtable
define internal zeroext i16 @de_emm_add_upd_type(ptr noundef %0, ptr noundef %1, ptr noundef %2, i32 noundef %3, i32 noundef %4, ptr noundef %5, i32 noundef %6) #1 {
  %8 = alloca ptr, align 8
  %9 = alloca ptr, align 8
  %10 = alloca ptr, align 8
  %11 = alloca i32, align 4
  %12 = alloca i32, align 4
  %13 = alloca ptr, align 8
  %14 = alloca i32, align 4
  %15 = alloca i32, align 4
  %16 = alloca i32, align 4
  store ptr %0, ptr %8, align 8
  store ptr %1, ptr %9, align 8
  store ptr %2, ptr %10, align 8
  store i32 %3, ptr %11, align 4
  store i32 %4, ptr %12, align 4
  store ptr %5, ptr %13, align 8
  store i32 %6, ptr %14, align 4
  call void @llvm.lifetime.start.p0(i64 4, ptr %15) #10
  call void @llvm.lifetime.start.p0(i64 4, ptr %16) #10
  %17 = load i32, ptr %11, align 4
  store i32 %17, ptr %15, align 4
  %18 = load i32, ptr %15, align 4
  %19 = shl i32 %18, 3
  %20 = add i32 %19, 4
  store i32 %20, ptr %16, align 4
  %21 = load ptr, ptr %9, align 8
  %22 = load i32, ptr @hf_nas_eps_emm_pnb_ciot, align 4
  %23 = load ptr, ptr %8, align 8
  %24 = load i32, ptr %16, align 4
  %25 = call ptr @proto_tree_add_bits_item(ptr noundef %21, i32 noundef %22, ptr noundef %23, i32 noundef %24, i32 noundef 2, i32 noundef 0)
  %26 = load i32, ptr %16, align 4
  %27 = add i32 %26, 2
  store i32 %27, ptr %16, align 4
  %28 = load ptr, ptr %9, align 8
  %29 = load i32, ptr @hf_nas_eps_emm_saf, align 4
  %30 = load ptr, ptr %8, align 8
  %31 = load i32, ptr %16, align 4
  %32 = call ptr @proto_tree_add_bits_item(ptr noundef %28, i32 noundef %29, ptr noundef %30, i32 noundef %31, i32 noundef 1, i32 noundef 0)
  %33 = load i32, ptr %16, align 4
  %34 = add i32 %33, 1
  store i32 %34, ptr %16, align 4
  %35 = load ptr, ptr %9, align 8
  %36 = load i32, ptr @hf_nas_eps_emm_add_upd_type, align 4
  %37 = load ptr, ptr %8, align 8
  %38 = load i32, ptr %16, align 4
  %39 = call ptr @proto_tree_add_bits_item(ptr noundef %35, i32 noundef %36, ptr noundef %37, i32 noundef %38, i32 noundef 1, i32 noundef 0)
  %40 = load i32, ptr %15, align 4
  %41 = add i32 %40, 1
  store i32 %41, ptr %15, align 4
  %42 = load i32, ptr %15, align 4
  %43 = load i32, ptr %11, align 4
  %44 = sub i32 %42, %43
  %45 = trunc i32 %44 to i16
  call void @llvm.lifetime.end.p0(i64 4, ptr %16) #10
  call void @llvm.lifetime.end.p0(i64 4, ptr %15) #10
  ret i16 %45
}